target datalayout = "e-m:e-p270:32:32-p271:32:32-p272:64:64-i64:64-i128:128-f80:128-n8:16:32:64-S128"
target triple = "x86_64-pc-linux-gnu"

%struct.SDL_WaylandSeat = type { ptr, ptr, ptr, ptr, ptr, %struct.wl_list, i32, i32, %struct.anon, %struct.anon.1, %struct.anon.4, %struct.anon.5, %struct.anon.6 }
%struct.wl_list = type { ptr, ptr }
%struct.anon = type { ptr, ptr, ptr, ptr, ptr, %struct.SDL_WaylandKeyboardRepeat, i64, i16, i16, i32, i8, %struct.anon.0 }
%struct.SDL_WaylandKeyboardRepeat = type { i32, i32, i32, i8, i8, i32, i64, i64, i64, i32, [8 x i8] }
%struct.anon.0 = type { ptr, ptr, ptr, ptr, i32, i32, i32, i32, i32, i32, i32, i32, i32, i32, i32 }
%struct.anon.1 = type { ptr, ptr, ptr, ptr, ptr, ptr, ptr, ptr, i64, i32, i32, %struct.SDL_Point, i32, %struct.anon.2, %struct.anon.3 }
%struct.SDL_Point = type { i32, i32 }
%struct.anon.2 = type { i32, float, i32, float, i64, i32 }
%struct.anon.3 = type { ptr, ptr, ptr, i64, i64, i32 }
%struct.anon.4 = type { ptr, ptr, i64, %struct.wl_list }
%struct.anon.5 = type { ptr, %struct.SDL_Rect, i8, i8 }
%struct.SDL_Rect = type { i32, i32, i32, i32 }
%struct.anon.6 = type { ptr, %struct.wl_list }
%struct.SDL_AtomicInt = type { i32 }
%struct.SDL_WindowData = type { ptr, ptr, ptr, ptr, ptr, ptr, ptr, %union.anon, i32, i32, i32, i32, ptr, ptr, ptr, ptr, ptr, ptr, ptr, ptr, ptr, ptr, ptr, ptr, ptr, ptr, %struct.SDL_AtomicInt, ptr, i32, ptr, double, ptr, i32, i32, i32, i32, %struct.anon.14, %struct.anon.15, %struct.anon.16, %struct.anon.17, %struct.anon.18, %struct.anon.19, %struct.anon.20, i32, i32, i32, i64, i32, i32, i8, i8, i8, i8, i8, i8, i8, i8, i8, i8, i8, i8, i8, i8, i32, %struct.wl_list }
%union.anon = type { %struct.anon.10 }
%struct.anon.10 = type { ptr, %union.anon.11, i8 }
%union.anon.11 = type { %struct.anon.13 }
%struct.anon.13 = type { ptr, ptr }
%struct.anon.14 = type { double, double }
%struct.anon.15 = type { i32, i32, i32, i32 }
%struct.anon.16 = type { i32, i32, i32, i32 }
%struct.anon.17 = type { i32, i32 }
%struct.anon.18 = type { i32, i32 }
%struct.anon.19 = type { i32, i32 }
%struct.anon.20 = type { i32, i32, i8 }

; Function Attrs: nounwind uwtable
define internal void @pointer_handle_frame(ptr noundef %0, ptr noundef %1) #0 {
  %3 = alloca ptr, align 8
  %4 = alloca ptr, align 8
  %5 = alloca ptr, align 8
  %6 = alloca ptr, align 8
  %7 = alloca float, align 4
  %8 = alloca float, align 4
  %9 = alloca i32, align 4
  store ptr %0, ptr %3, align 8
  store ptr %1, ptr %4, align 8
  call void @llvm.lifetime.start.p0(i64 8, ptr %5) #10
  %10 = load ptr, ptr %3, align 8
  store ptr %10, ptr %5, align 8
  call void @llvm.lifetime.start.p0(i64 8, ptr %6) #10
  %11 = load ptr, ptr %5, align 8
  %12 = getelementptr inbounds nuw %struct.SDL_WaylandSeat, ptr %11, i32 0, i32 9
  %13 = getelementptr inbounds nuw %struct.anon.1, ptr %12, i32 0, i32 6
  %14 = load ptr, ptr %13, align 8
  store ptr %14, ptr %6, align 8
  call void @llvm.lifetime.start.p0(i64 4, ptr %7) #10
  call void @llvm.lifetime.start.p0(i64 4, ptr %8) #10
  call void @llvm.lifetime.start.p0(i64 4, ptr %9) #10
  %15 = load ptr, ptr %5, align 8
  %16 = getelementptr inbounds nuw %struct.SDL_WaylandSeat, ptr %15, i32 0, i32 9
  %17 = getelementptr inbounds nuw %struct.anon.1, ptr %16, i32 0, i32 13
  %18 = getelementptr inbounds nuw %struct.anon.2, ptr %17, i32 0, i32 5
  %19 = load i32, ptr %18, align 8
  store i32 %19, ptr %9, align 4
  %20 = load ptr, ptr %5, align 8
  %21 = getelementptr inbounds nuw %struct.SDL_WaylandSeat, ptr %20, i32 0, i32 9
  %22 = getelementptr inbounds nuw %struct.anon.1, ptr %21, i32 0, i32 13
  %23 = getelementptr inbounds nuw %struct.anon.2, ptr %22, i32 0, i32 0
  %24 = load i32, ptr %23, align 8
  switch i32 %24, label %45 [
    i32 0, label %25
    i32 1, label %32
    i32 2, label %38
  ]

25:                                               ; preds = %2
  %26 = load ptr, ptr %5, align 8
  %27 = getelementptr inbounds nuw %struct.SDL_WaylandSeat, ptr %26, i32 0, i32 9
  %28 = getelementptr inbounds nuw %struct.anon.1, ptr %27, i32 0, i32 13
  %29 = getelementptr inbounds nuw %struct.anon.2, ptr %28, i32 0, i32 1
  %30 = load float, ptr %29, align 4
  %31 = fdiv float %30, 1.000000e+01
  store float %31, ptr %7, align 4
  br label %46

32:                                               ; preds = %2
  %33 = load ptr, ptr %5, align 8
  %34 = getelementptr inbounds nuw %struct.SDL_WaylandSeat, ptr %33, i32 0, i32 9
  %35 = getelementptr inbounds nuw %struct.anon.1, ptr %34, i32 0, i32 13
  %36 = getelementptr inbounds nuw %struct.anon.2, ptr %35, i32 0, i32 1
  %37 = load float, ptr %36, align 4
  store float %37, ptr %7, align 4
  br label %46

38:                                               ; preds = %2
  %39 = load ptr, ptr %5, align 8
  %40 = getelementptr inbounds nuw %struct.SDL_WaylandSeat, ptr %39, i32 0, i32 9
  %41 = getelementptr inbounds nuw %struct.anon.1, ptr %40, i32 0, i32 13
  %42 = getelementptr inbounds nuw %struct.anon.2, ptr %41, i32 0, i32 1
  %43 = load float, ptr %42, align 4
  %44 = fdiv float %43, 1.200000e+02
  store float %44, ptr %7, align 4
  br label %46

45:                                               ; preds = %2
  store float 0.000000e+00, ptr %7, align 4
  br label %46

46:                                               ; preds = %45, %38, %32, %25
  %47 = load ptr, ptr %5, align 8
  %48 = getelementptr inbounds nuw %struct.SDL_WaylandSeat, ptr %47, i32 0, i32 9
  %49 = getelementptr inbounds nuw %struct.anon.1, ptr %48, i32 0, i32 13
  %50 = getelementptr inbounds nuw %struct.anon.2, ptr %49, i32 0, i32 2
  %51 = load i32, ptr %50, align 8
  switch i32 %51, label %72 [
    i32 0, label %52
    i32 1, label %59
    i32 2, label %65
  ]

52:                                               ; preds = %46
  %53 = load ptr, ptr %5, align 8
  %54 = getelementptr inbounds nuw %struct.SDL_WaylandSeat, ptr %53, i32 0, i32 9
  %55 = getelementptr inbounds nuw %struct.anon.1, ptr %54, i32 0, i32 13
  %56 = getelementptr inbounds nuw %struct.anon.2, ptr %55, i32 0, i32 3
  %57 = load float, ptr %56, align 4
  %58 = fdiv float %57, 1.000000e+01
  store float %58, ptr %8, align 4
  br label %73

59:                                               ; preds = %46
  %60 = load ptr, ptr %5, align 8
  %61 = getelementptr inbounds nuw %struct.SDL_WaylandSeat, ptr %60, i32 0, i32 9
  %62 = getelementptr inbounds nuw %struct.anon.1, ptr %61, i32 0, i32 13
  %63 = getelementptr inbounds nuw %struct.anon.2, ptr %62, i32 0, i32 3
  %64 = load float, ptr %63, align 4
  store float %64, ptr %8, align 4
  br label %73

65:                                               ; preds = %46
  %66 = load ptr, ptr %5, align 8
  %67 = getelementptr inbounds nuw %struct.SDL_WaylandSeat, ptr %66, i32 0, i32 9
  %68 = getelementptr inbounds nuw %struct.anon.1, ptr %67, i32 0, i32 13
  %69 = getelementptr inbounds nuw %struct.anon.2, ptr %68, i32 0, i32 3
  %70 = load float, ptr %69, align 4
  %71 = fdiv float %70, 1.200000e+02
  store float %71, ptr %8, align 4
  br label %73

72:                                               ; preds = %46
  store float 0.000000e+00, ptr %8, align 4
  br label %73

73:                                               ; preds = %72, %65, %59, %52
  %74 = load ptr, ptr %5, align 8
  %75 = getelementptr inbounds nuw %struct.SDL_WaylandSeat, ptr %74, i32 0, i32 9
  %76 = getelementptr inbounds nuw %struct.anon.1, ptr %75, i32 0, i32 13
  call void @llvm.memset.p0.i64(ptr align 8 %76, i8 0, i64 32, i1 false)
  %77 = load float, ptr %7, align 4
  %78 = fcmp une float %77, 0.000000e+00
  br i1 %78, label %82, label %79

79:                                               ; preds = %73
  %80 = load float, ptr %8, align 4
  %81 = fcmp une float %80, 0.000000e+00
  br i1 %81, label %82, label %98

82:                                               ; preds = %79, %73
  %83 = load ptr, ptr %5, align 8
  %84 = getelementptr inbounds nuw %struct.SDL_WaylandSeat, ptr %83, i32 0, i32 9
  %85 = getelementptr inbounds nuw %struct.anon.1, ptr %84, i32 0, i32 13
  %86 = getelementptr inbounds nuw %struct.anon.2, ptr %85, i32 0, i32 4
  %87 = load i64, ptr %86, align 8
  %88 = load ptr, ptr %6, align 8
  %89 = getelementptr inbounds nuw %struct.SDL_WindowData, ptr %88, i32 0, i32 0
  %90 = load ptr, ptr %89, align 8
  %91 = load ptr, ptr %5, align 8
  %92 = getelementptr inbounds nuw %struct.SDL_WaylandSeat, ptr %91, i32 0, i32 9
  %93 = getelementptr inbounds nuw %struct.anon.1, ptr %92, i32 0, i32 12
  %94 = load i32, ptr %93, align 8
  %95 = load float, ptr %7, align 4
  %96 = load float, ptr %8, align 4
  %97 = load i32, ptr %9, align 4
  call void @SDL_SendMouseWheel(i64 noundef %87, ptr noundef %90, i32 noundef %94, float noundef %95, float noundef %96, i32 noundef %97)
  br label %98

98:                                               ; preds = %82, %79
  call void @llvm.lifetime.end.p0(i64 4, ptr %9) #10
  call void @llvm.lifetime.end.p0(i64 4, ptr %8) #10
  call void @llvm.lifetime.end.p0(i64 4, ptr %7) #10
  call void @llvm.lifetime.end.p0(i64 8, ptr %6) #10
  call void @llvm.lifetime.end.p0(i64 8, ptr %5) #10
  ret void
}