; Function Attrs: nounwind uwtable
define internal void @pointer_handle_frame(ptr noundef captures(none) initializes((384, 392), (396, 400)) %0, ptr readnone captures(none) %1) #0 {
  %3 = getelementptr inbounds nuw i8, ptr %0, i64 320
  %4 = load ptr, ptr %3, align 8
  %5 = getelementptr inbounds nuw i8, ptr %0, i64 368
  %6 = getelementptr inbounds nuw i8, ptr %0, i64 392
  %7 = load i32, ptr %6, align 8
  %8 = load i32, ptr %5, align 8
  switch i32 %8, label %20 [
    i32 0, label %9
    i32 1, label %13
    i32 2, label %16
  ]

9:                                                ; preds = %2
  %10 = getelementptr inbounds nuw i8, ptr %0, i64 372
  %11 = load float, ptr %10, align 4
  %12 = fdiv float %11, 1.000000e+01
  br label %20

13:                                               ; preds = %2
  %14 = getelementptr inbounds nuw i8, ptr %0, i64 372
  %15 = load float, ptr %14, align 4
  br label %20

16:                                               ; preds = %2
  %17 = getelementptr inbounds nuw i8, ptr %0, i64 372
  %18 = load float, ptr %17, align 4
  %19 = fdiv float %18, 1.200000e+02
  br label %20

20:                                               ; preds = %2, %16, %13, %9
  %.0 = phi float [ %19, %16 ], [ %15, %13 ], [ %12, %9 ], [ 0.000000e+00, %2 ]
  %21 = getelementptr inbounds nuw i8, ptr %0, i64 376
  %22 = load i32, ptr %21, align 8
  switch i32 %22, label %34 [
    i32 0, label %23
    i32 1, label %27
    i32 2, label %30
  ]

23:                                               ; preds = %20
  %24 = getelementptr inbounds nuw i8, ptr %0, i64 380
  %25 = load float, ptr %24, align 4
  %26 = fdiv float %25, 1.000000e+01
  br label %34

27:                                               ; preds = %20
  %28 = getelementptr inbounds nuw i8, ptr %0, i64 380
  %29 = load float, ptr %28, align 4
  br label %34

30:                                               ; preds = %20
  %31 = getelementptr inbounds nuw i8, ptr %0, i64 380
  %32 = load float, ptr %31, align 4
  %33 = fdiv float %32, 1.200000e+02
  br label %34

34:                                               ; preds = %20, %30, %27, %23
  %.020 = phi float [ %33, %30 ], [ %29, %27 ], [ %26, %23 ], [ 0.000000e+00, %20 ]
  tail call void @llvm.memset.p0.i64(ptr noundef nonnull align 8 dereferenceable(32) %5, i8 0, i64 32, i1 false)
  %35 = fcmp une float %.0, 0.000000e+00
  %36 = fcmp une float %.020, 0.000000e+00
  %or.cond = select i1 %35, i1 true, i1 %36
  br i1 %or.cond, label %37, label %41

37:                                               ; preds = %34
  %38 = load ptr, ptr %4, align 8
  %39 = getelementptr inbounds nuw i8, ptr %0, i64 360
  %40 = load i32, ptr %39, align 8
  tail call void @SDL_SendMouseWheel(i64 noundef 0, ptr noundef %38, i32 noundef %40, float noundef %.0, float noundef %.020, i32 noundef %7) #12
  br label %41

41:                                               ; preds = %34, %37
  ret void
}